	.file	"app.c"
	.text
Ltext0:
	.comm	_map, 2700, 5
	.globl	_y
	.data
	.align 4
_y:
	.long	10
	.globl	_x
	.align 4
_x:
	.long	12
	.text
	.globl	_dungeon
	.def	_dungeon;	.scl	2;	.type	32;	.endef
_dungeon:
LFB10:
	.file 1 "app.c"
	.loc 1 9 0
	.cfi_startproc
	pushl	%ebp
	.cfi_def_cfa_offset 8
	.cfi_offset 5, -8
	movl	%esp, %ebp
	.cfi_def_cfa_register 5
	subl	$40, %esp
LBB2:
	.loc 1 10 0
	movl	$0, -12(%ebp)
	jmp	L2
L5:
LBB3:
	.loc 1 12 0
	movl	$0, -16(%ebp)
	jmp	L3
L4:
	.loc 1 14 0 discriminator 3
	movl	-12(%ebp), %eax
	imull	$90, %eax, %edx
	movl	-16(%ebp), %eax
	addl	%edx, %eax
	addl	$_map, %eax
	movb	$35, (%eax)
	.loc 1 15 0 discriminator 3
	movl	$35, 8(%esp)
	movl	-16(%ebp), %eax
	movl	%eax, 4(%esp)
	movl	-12(%ebp), %eax
	movl	%eax, (%esp)
	call	_mvaddch
	.loc 1 12 0 discriminator 3
	addl	$1, -16(%ebp)
L3:
	.loc 1 12 0 is_stmt 0 discriminator 1
	movl	-16(%ebp), %eax
	cmpl	12(%ebp), %eax
	jle	L4
LBE3:
	.loc 1 10 0 is_stmt 1 discriminator 2
	addl	$1, -12(%ebp)
L2:
	.loc 1 10 0 is_stmt 0 discriminator 1
	movl	-12(%ebp), %eax
	cmpl	8(%ebp), %eax
	jle	L5
LBE2:
LBB4:
	.loc 1 18 0 is_stmt 1
	movl	$7, -20(%ebp)
	jmp	L6
L9:
LBB5:
	.loc 1 20 0
	movl	$7, -24(%ebp)
	jmp	L7
L8:
	.loc 1 22 0 discriminator 3
	movl	-20(%ebp), %eax
	imull	$90, %eax, %edx
	movl	-24(%ebp), %eax
	addl	%edx, %eax
	addl	$_map, %eax
	movb	$32, (%eax)
	.loc 1 23 0 discriminator 3
	movl	$32, 8(%esp)
	movl	-24(%ebp), %eax
	movl	%eax, 4(%esp)
	movl	-20(%ebp), %eax
	movl	%eax, (%esp)
	call	_mvaddch
	.loc 1 20 0 discriminator 3
	addl	$1, -24(%ebp)
L7:
	.loc 1 20 0 is_stmt 0 discriminator 1
	movl	12(%ebp), %eax
	movl	%eax, %edx
	shrl	$31, %edx
	addl	%edx, %eax
	sarl	%eax
	cmpl	-24(%ebp), %eax
	jge	L8
LBE5:
	.loc 1 18 0 is_stmt 1 discriminator 2
	addl	$1, -20(%ebp)
L6:
	.loc 1 18 0 is_stmt 0 discriminator 1
	movl	8(%ebp), %eax
	movl	%eax, %edx
	shrl	$31, %edx
	addl	%edx, %eax
	sarl	%eax
	cmpl	-20(%ebp), %eax
	jge	L9
LBE4:
	.loc 1 26 0 is_stmt 1
	nop
	leave
	.cfi_restore 5
	.cfi_def_cfa 4, 4
	ret
	.cfi_endproc
LFE10:
	.globl	_movement
	.def	_movement;	.scl	2;	.type	32;	.endef
_movement:
LFB11:
	.loc 1 28 0
	.cfi_startproc
	pushl	%ebp
	.cfi_def_cfa_offset 8
	.cfi_offset 5, -8
	movl	%esp, %ebp
	.cfi_def_cfa_register 5
	subl	$24, %esp
	.loc 1 29 0
	cmpl	$259, 8(%ebp)
	jne	L11
	.loc 1 29 0 discriminator 1
	movl	_y, %eax
	leal	-1(%eax), %edx
	movl	_x, %eax
	imull	$90, %edx, %edx
	addl	%edx, %eax
	addl	$_map, %eax
	movzbl	(%eax), %eax
	cmpb	$32, %al
	jne	L11
	.loc 1 30 0
	movl	_y, %eax
	subl	$1, %eax
	movl	%eax, _y
	jmp	L12
L11:
	.loc 1 31 0
	cmpl	$258, 8(%ebp)
	jne	L13
	.loc 1 31 0 discriminator 1
	movl	_y, %eax
	leal	1(%eax), %edx
	movl	_x, %eax
	imull	$90, %edx, %edx
	addl	%edx, %eax
	addl	$_map, %eax
	movzbl	(%eax), %eax
	cmpb	$32, %al
	jne	L13
	.loc 1 32 0
	movl	_y, %eax
	addl	$1, %eax
	movl	%eax, _y
	jmp	L12
L13:
	.loc 1 33 0
	cmpl	$260, 8(%ebp)
	jne	L14
	.loc 1 33 0 discriminator 1
	movl	_y, %eax
	movl	_x, %edx
	subl	$1, %edx
	imull	$90, %eax, %eax
	addl	%edx, %eax
	addl	$_map, %eax
	movzbl	(%eax), %eax
	cmpb	$32, %al
	jne	L14
	.loc 1 34 0
	movl	_x, %eax
	subl	$1, %eax
	movl	%eax, _x
	jmp	L12
L14:
	.loc 1 35 0
	cmpl	$261, 8(%ebp)
	jne	L12
	.loc 1 35 0 discriminator 1
	movl	_y, %eax
	movl	_x, %edx
	addl	$1, %edx
	imull	$90, %eax, %eax
	addl	%edx, %eax
	addl	$_map, %eax
	movzbl	(%eax), %eax
	cmpb	$32, %al
	jne	L12
	.loc 1 36 0
	movl	_x, %eax
	addl	$1, %eax
	movl	%eax, _x
L12:
	.loc 1 38 0
	movl	_x, %edx
	movl	_y, %eax
	movl	$64, 8(%esp)
	movl	%edx, 4(%esp)
	movl	%eax, (%esp)
	call	_mvaddch
	.loc 1 39 0
	nop
	leave
	.cfi_restore 5
	.cfi_def_cfa 4, 4
	ret
	.cfi_endproc
LFE11:
	.def	___main;	.scl	2;	.type	32;	.endef
	.globl	_main
	.def	_main;	.scl	2;	.type	32;	.endef
_main:
LFB12:
	.loc 1 41 0
	.cfi_startproc
	pushl	%ebp
	.cfi_def_cfa_offset 8
	.cfi_offset 5, -8
	movl	%esp, %ebp
	.cfi_def_cfa_register 5
	andl	$-16, %esp
	subl	$32, %esp
	.loc 1 41 0
	call	___main
LVL0:
	.loc 1 47 0
	call	_initscr
	.loc 1 48 0
	movl	_stdscr, %eax
	movl	$1, 4(%esp)
	movl	%eax, (%esp)
	call	_keypad
	.loc 1 49 0
	call	_noecho
	.loc 1 50 0
	movl	$0, (%esp)
	call	_curs_set
	.loc 1 51 0
	movl	_stdscr, %eax
	movl	%eax, (%esp)
	call	_getmaxy
	movl	%eax, 24(%esp)
	.loc 1 51 0
	movl	_stdscr, %eax
	movl	%eax, (%esp)
	call	_getmaxx
	movl	%eax, 20(%esp)
L16:
	.loc 1 55 0 discriminator 1
	movl	20(%esp), %eax
	movl	%eax, 4(%esp)
	movl	24(%esp), %eax
	movl	%eax, (%esp)
	call	_dungeon
	.loc 1 56 0 discriminator 1
	movl	28(%esp), %eax
	movl	%eax, (%esp)
	call	_movement
	.loc 1 62 0 discriminator 1
	movl	_stdscr, %eax
	.loc 1 62 0 discriminator 1
	movl	%eax, (%esp)
	call	_wgetch
	movl	%eax, 28(%esp)
	cmpl	$27, 28(%esp)
	jne	L16
	.loc 1 64 0
	call	_endwin
	.loc 1 66 0
	movl	_stdscr, %eax
	movl	%eax, (%esp)
	call	_wgetch
	.loc 1 67 0
	movl	_stdscr, %eax
	movl	%eax, (%esp)
	call	_wgetch
	.loc 1 69 0
	movl	$0, %eax
	.loc 1 70 0
	leave
	.cfi_restore 5
	.cfi_def_cfa 4, 4
	ret
	.cfi_endproc
LFE12:
Letext0:
	.file 2 "c:/mingw/include/stdio.h"
	.file 3 "c:/mingw/include/curses.h"