	.file	"app.c"
	.text
Ltext0:
	.comm	_py, 4, 2
	.comm	_px, 4, 2
	.globl	_p_gold
	.bss
	.align 4
_p_gold:
	.space 4
	.globl	_t_placed
_t_placed:
	.space 1
	.globl	_p_placed
_p_placed:
	.space 1
	.globl	_r_placed
	.align 4
_r_placed:
	.space 4
	.comm	_monster, 120, 5
	.text
	.globl	_battle
	.def	_battle;	.scl	2;	.type	32;	.endef
_battle:
LFB15:
	.file 1 "app.c"
	.loc 1 28 0
	.cfi_startproc
	pushl	%ebp
	.cfi_def_cfa_offset 8
	.cfi_offset 5, -8
	movl	%esp, %ebp
	.cfi_def_cfa_register 5
	subl	$24, %esp
	.loc 1 27 0
	movl	8(%ebp), %edx
	leal	-1(%edx), %eax
	movl	%eax, -16(%ebp)
LBB2:
	.loc 1 29 0
	movl	$0, -12(%ebp)
	jmp	L2
L7:
	.loc 1 31 0
	movl	-12(%ebp), %ecx
	movl	%ecx, %eax
	addl	%eax, %eax
	addl	%ecx, %eax
	sall	$2, %eax
	addl	$_monster, %eax
	movl	(%eax), %eax
	cmpl	16(%ebp), %eax
	jne	L3
	.loc 1 31 0 is_stmt 0 discriminator 1
	movl	-12(%ebp), %ecx
	movl	%ecx, %eax
	addl	%eax, %eax
	addl	%ecx, %eax
	sall	$2, %eax
	addl	$_monster+4, %eax
	movl	(%eax), %eax
	cmpl	20(%ebp), %eax
	jne	L3
	.loc 1 33 0 is_stmt 1
	movl	-12(%ebp), %ecx
	movl	%ecx, %eax
	addl	%eax, %eax
	addl	%ecx, %eax
	sall	$2, %eax
	addl	$_monster+8, %eax
	movl	(%eax), %eax
	testl	%eax, %eax
	jg	L4
	.loc 1 35 0
	movl	16(%ebp), %eax
	imull	%eax, %edx
	movl	12(%ebp), %eax
	addl	%eax, %edx
	movl	20(%ebp), %eax
	addl	%edx, %eax
	movb	$32, (%eax)
	.loc 1 36 0
	call	_rand
	movl	%eax, %ecx
	movl	$1717986919, %edx
	movl	%ecx, %eax
	imull	%edx
	sarl	$2, %edx
	movl	%ecx, %eax
	sarl	$31, %eax
	subl	%eax, %edx
	movl	%edx, %eax
	sall	$2, %eax
	addl	%edx, %eax
	addl	%eax, %eax
	subl	%eax, %ecx
	movl	%ecx, %edx
	addl	$1, %edx
	movl	_p_gold, %eax
	addl	%edx, %eax
	movl	%eax, _p_gold
	.loc 1 41 0
	jmp	L6
L4:
	.loc 1 39 0
	movl	-12(%ebp), %edx
	movl	%edx, %eax
	addl	%eax, %eax
	addl	%edx, %eax
	sall	$2, %eax
	addl	$_monster+8, %eax
	movl	(%eax), %eax
	leal	-1(%eax), %ecx
	movl	-12(%ebp), %edx
	movl	%edx, %eax
	addl	%eax, %eax
	addl	%edx, %eax
	sall	$2, %eax
	addl	$_monster+8, %eax
	movl	%ecx, (%eax)
	.loc 1 41 0
	jmp	L6
L3:
	.loc 1 29 0 discriminator 2
	addl	$1, -12(%ebp)
L2:
	.loc 1 29 0 is_stmt 0 discriminator 1
	cmpl	$9, -12(%ebp)
	jle	L7
L6:
LBE2:
	.loc 1 44 0 is_stmt 1
	movl	$0, %eax
	.loc 1 45 0
	leave
	.cfi_restore 5
	.cfi_def_cfa 4, 4
	ret
	.cfi_endproc
LFE15:
	.globl	_p_action
	.def	_p_action;	.scl	2;	.type	32;	.endef
_p_action:
LFB16:
	.loc 1 47 0
	.cfi_startproc
	pushl	%ebp
	.cfi_def_cfa_offset 8
	.cfi_offset 5, -8
	movl	%esp, %ebp
	.cfi_def_cfa_register 5
	subl	$40, %esp
	.loc 1 47 0
	movl	12(%ebp), %eax
	.loc 1 46 0
	leal	-1(%eax), %edx
	movl	%edx, -20(%ebp)
	.loc 1 48 0
	movl	_py, %edx
	movl	%edx, -12(%ebp)
	movl	_px, %edx
	movl	%edx, -16(%ebp)
	.loc 1 50 0
	cmpl	$259, 8(%ebp)
	jne	L10
	.loc 1 51 0
	subl	$1, -12(%ebp)
	jmp	L11
L10:
	.loc 1 52 0
	cmpl	$258, 8(%ebp)
	jne	L12
	.loc 1 53 0
	addl	$1, -12(%ebp)
	jmp	L11
L12:
	.loc 1 54 0
	cmpl	$260, 8(%ebp)
	jne	L13
	.loc 1 55 0
	subl	$1, -16(%ebp)
	jmp	L11
L13:
	.loc 1 56 0
	cmpl	$261, 8(%ebp)
	jne	L11
	.loc 1 57 0
	addl	$1, -16(%ebp)
L11:
	.loc 1 59 0
	movl	%eax, %ecx
	movl	-12(%ebp), %edx
	imull	%edx, %ecx
	movl	16(%ebp), %edx
	addl	%edx, %ecx
	movl	-16(%ebp), %edx
	addl	%ecx, %edx
	movzbl	(%edx), %edx
	cmpb	$32, %dl
	jne	L14
	.loc 1 61 0
	movl	-12(%ebp), %eax
	movl	%eax, _py
	.loc 1 62 0
	movl	-16(%ebp), %eax
	movl	%eax, _px
	jmp	L15
L14:
	.loc 1 64 0
	movl	%eax, %edx
	movl	-12(%ebp), %eax
	imull	%eax, %edx
	movl	16(%ebp), %eax
	addl	%eax, %edx
	movl	-16(%ebp), %eax
	addl	%edx, %eax
	movzbl	(%eax), %eax
	cmpb	$116, %al
	jne	L15
	.loc 1 66 0
	movl	-16(%ebp), %eax
	movl	%eax, 12(%esp)
	movl	-12(%ebp), %eax
	movl	%eax, 8(%esp)
	movl	16(%ebp), %eax
	movl	%eax, 4(%esp)
	movl	12(%ebp), %eax
	movl	%eax, (%esp)
	call	_battle
L15:
	.loc 1 68 0
	movl	$0, %eax
	.loc 1 69 0
	leave
	.cfi_restore 5
	.cfi_def_cfa 4, 4
	ret
	.cfi_endproc
LFE16:
	.globl	_dungeon_gen
	.def	_dungeon_gen;	.scl	2;	.type	32;	.endef
_dungeon_gen:
LFB17:
	.loc 1 72 0
	.cfi_startproc
	pushl	%ebp
	.cfi_def_cfa_offset 8
	.cfi_offset 5, -8
	movl	%esp, %ebp
	.cfi_def_cfa_register 5
	pushl	%ebx
	subl	$84, %esp
	.cfi_offset 3, -12
	.loc 1 72 0
	movl	12(%ebp), %ebx
	.loc 1 71 0
	leal	-1(%ebx), %eax
	movl	%eax, -84(%ebp)
	.loc 1 74 0
	movl	_r_placed, %eax
	testl	%eax, %eax
	jne	L18
LBB3:
	.loc 1 85 0
	call	_rand
	movl	%eax, %ecx
	movl	$1717986919, %edx
	movl	%ecx, %eax
	imull	%edx
	sarl	%edx
	movl	%ecx, %eax
	sarl	$31, %eax
	subl	%eax, %edx
	movl	%edx, %eax
	sall	$2, %eax
	addl	%edx, %eax
	subl	%eax, %ecx
	movl	%ecx, %edx
	leal	5(%edx), %eax
	movl	%eax, -88(%ebp)
LBB4:
	.loc 1 89 0
	movl	$0, -48(%ebp)
	jmp	L19
L25:
LBB5:
	.loc 1 91 0
	movl	$0, -52(%ebp)
	jmp	L20
L24:
	.loc 1 94 0
	cmpl	$0, -48(%ebp)
	je	L21
	.loc 1 94 0 is_stmt 0 discriminator 1
	movl	8(%ebp), %eax
	subl	$1, %eax
	cmpl	-48(%ebp), %eax
	je	L21
	.loc 1 94 0 discriminator 2
	cmpl	$0, -52(%ebp)
	je	L21
	.loc 1 95 0 is_stmt 1
	movl	-52(%ebp), %eax
	cmpl	12(%ebp), %eax
	je	L21
	.loc 1 95 0 is_stmt 0 discriminator 1
	movl	-48(%ebp), %eax
	cmpl	8(%ebp), %eax
	jne	L22
L21:
	.loc 1 97 0 is_stmt 1
	movl	%ebx, %edx
	movl	-48(%ebp), %eax
	imull	%eax, %edx
	movl	16(%ebp), %eax
	addl	%eax, %edx
	movl	-52(%ebp), %eax
	addl	%edx, %eax
	movb	$37, (%eax)
	jmp	L23
L22:
	.loc 1 100 0
	movl	%ebx, %edx
	movl	-48(%ebp), %eax
	imull	%eax, %edx
	movl	16(%ebp), %eax
	addl	%eax, %edx
	movl	-52(%ebp), %eax
	addl	%edx, %eax
	movb	$35, (%eax)
L23:
	.loc 1 91 0 discriminator 2
	addl	$1, -52(%ebp)
L20:
	.loc 1 91 0 is_stmt 0 discriminator 1
	movl	-52(%ebp), %eax
	cmpl	12(%ebp), %eax
	jle	L24
LBE5:
	.loc 1 89 0 is_stmt 1 discriminator 2
	addl	$1, -48(%ebp)
L19:
	.loc 1 89 0 is_stmt 0 discriminator 1
	movl	-48(%ebp), %eax
	cmpl	8(%ebp), %eax
	jle	L25
LBE4:
	.loc 1 104 0 is_stmt 1
	jmp	L26
L50:
LBB6:
	.loc 1 106 0
	movl	$0, -56(%ebp)
L36:
	.loc 1 110 0
	movb	$0, -41(%ebp)
	.loc 1 113 0
	call	_rand
	movl	%eax, %edx
	movl	8(%ebp), %eax
	leal	-3(%eax), %ecx
	movl	%edx, %eax
	cltd
	idivl	%ecx
	movl	%edx, %eax
	addl	$1, %eax
	movl	%eax, -12(%ebp)
	.loc 1 114 0
	call	_rand
	movl	%eax, %edx
	movl	12(%ebp), %eax
	leal	-3(%eax), %ecx
	movl	%edx, %eax
	cltd
	idivl	%ecx
	movl	%edx, %eax
	addl	$1, %eax
	movl	%eax, -16(%ebp)
	.loc 1 117 0
	call	_rand
	movl	%eax, %ecx
	movl	$1717986919, %edx
	movl	%ecx, %eax
	imull	%edx
	sarl	%edx
	movl	%ecx, %eax
	sarl	$31, %eax
	subl	%eax, %edx
	movl	%edx, %eax
	sall	$2, %eax
	addl	%edx, %eax
	subl	%eax, %ecx
	movl	%ecx, %edx
	leal	5(%edx), %eax
	movl	%eax, -20(%ebp)
	.loc 1 118 0
	call	_rand
	movl	%eax, %ecx
	movl	$1717986919, %edx
	movl	%ecx, %eax
	imull	%edx
	sarl	$2, %edx
	movl	%ecx, %eax
	sarl	$31, %eax
	subl	%eax, %edx
	movl	%edx, %eax
	sall	$2, %eax
	addl	%edx, %eax
	addl	%eax, %eax
	subl	%eax, %ecx
	movl	%ecx, %edx
	leal	8(%edx), %eax
	movl	%eax, -24(%ebp)
	.loc 1 120 0
	addl	$1, -56(%ebp)
	.loc 1 122 0
	cmpl	$100, -56(%ebp)
	jle	L27
	.loc 1 124 0
	movl	$3, -16(%ebp)
	movl	-16(%ebp), %eax
	movl	%eax, -12(%ebp)
	.loc 1 125 0
	movl	$3, -24(%ebp)
	movl	-24(%ebp), %eax
	movl	%eax, -20(%ebp)
	.loc 1 127 0
	jmp	L28
L27:
LBB7:
	.loc 1 131 0
	movl	-12(%ebp), %eax
	movl	%eax, -60(%ebp)
	jmp	L29
L35:
LBB8:
	.loc 1 133 0
	movl	-16(%ebp), %eax
	movl	%eax, -64(%ebp)
	jmp	L30
L34:
	.loc 1 135 0
	movl	%ebx, %edx
	movl	-60(%ebp), %eax
	imull	%eax, %edx
	movl	16(%ebp), %eax
	addl	%eax, %edx
	movl	-64(%ebp), %eax
	addl	%edx, %eax
	movzbl	(%eax), %eax
	cmpb	$37, %al
	je	L31
	.loc 1 135 0 is_stmt 0 discriminator 1
	movl	%ebx, %edx
	movl	-60(%ebp), %eax
	imull	%eax, %edx
	movl	16(%ebp), %eax
	addl	%eax, %edx
	movl	-64(%ebp), %eax
	addl	%edx, %eax
	movzbl	(%eax), %eax
	cmpb	$32, %al
	je	L31
	.loc 1 136 0 is_stmt 1 discriminator 2
	movl	-60(%ebp), %eax
	addl	$2, %eax
	movl	%eax, %edx
	movl	%ebx, %eax
	imull	%eax, %edx
	movl	16(%ebp), %eax
	addl	%eax, %edx
	movl	-64(%ebp), %eax
	addl	%edx, %eax
	movzbl	(%eax), %eax
	.loc 1 135 0 discriminator 2
	cmpb	$32, %al
	je	L31
	.loc 1 136 0
	movl	-60(%ebp), %eax
	subl	$2, %eax
	movl	%eax, %edx
	movl	%ebx, %eax
	imull	%eax, %edx
	movl	16(%ebp), %eax
	addl	%eax, %edx
	movl	-64(%ebp), %eax
	addl	%edx, %eax
	movzbl	(%eax), %eax
	cmpb	$32, %al
	je	L31
	.loc 1 137 0 discriminator 1
	movl	%ebx, %edx
	movl	-60(%ebp), %eax
	imull	%eax, %edx
	movl	16(%ebp), %eax
	addl	%eax, %edx
	movl	-64(%ebp), %eax
	addl	$2, %eax
	movzbl	(%edx,%eax), %eax
	.loc 1 136 0 discriminator 1
	cmpb	$32, %al
	je	L31
	.loc 1 137 0
	movl	%ebx, %edx
	movl	-60(%ebp), %eax
	imull	%eax, %edx
	movl	16(%ebp), %eax
	addl	%eax, %edx
	movl	-64(%ebp), %eax
	subl	$2, %eax
	movzbl	(%edx,%eax), %eax
	cmpb	$32, %al
	jne	L32
L31:
	.loc 1 140 0
	movb	$1, -41(%ebp)
	.loc 1 141 0
	movl	-12(%ebp), %edx
	movl	-20(%ebp), %eax
	addl	%edx, %eax
	movl	%eax, -60(%ebp)
	.loc 1 142 0
	jmp	L33
L32:
	.loc 1 133 0 discriminator 2
	addl	$1, -64(%ebp)
L30:
	.loc 1 133 0 is_stmt 0 discriminator 1
	movl	-16(%ebp), %edx
	movl	-24(%ebp), %eax
	addl	%edx, %eax
	cmpl	-64(%ebp), %eax
	jge	L34
L33:
LBE8:
	.loc 1 131 0 is_stmt 1 discriminator 2
	addl	$1, -60(%ebp)
L29:
	.loc 1 131 0 is_stmt 0 discriminator 1
	movl	-12(%ebp), %edx
	movl	-20(%ebp), %eax
	addl	%edx, %eax
	cmpl	-60(%ebp), %eax
	jge	L35
LBE7:
	.loc 1 149 0 is_stmt 1
	cmpb	$0, -41(%ebp)
	jne	L36
L28:
LBB9:
	.loc 1 152 0
	movl	-12(%ebp), %eax
	movl	%eax, -68(%ebp)
	jmp	L37
L42:
LBB10:
	.loc 1 154 0
	movl	-16(%ebp), %eax
	movl	%eax, -72(%ebp)
	jmp	L38
L41:
	.loc 1 156 0
	movl	%ebx, %edx
	movl	-68(%ebp), %eax
	imull	%eax, %edx
	movl	16(%ebp), %eax
	addl	%eax, %edx
	movl	-72(%ebp), %eax
	addl	%edx, %eax
	movzbl	(%eax), %eax
	cmpb	$37, %al
	jne	L39
	.loc 1 158 0
	movl	-12(%ebp), %edx
	movl	-20(%ebp), %eax
	addl	%edx, %eax
	movl	%eax, -68(%ebp)
	.loc 1 159 0
	jmp	L40
L39:
	.loc 1 163 0 discriminator 2
	movl	%ebx, %edx
	movl	-68(%ebp), %eax
	imull	%eax, %edx
	movl	16(%ebp), %eax
	addl	%eax, %edx
	movl	-72(%ebp), %eax
	addl	%edx, %eax
	movb	$32, (%eax)
	.loc 1 154 0 discriminator 2
	addl	$1, -72(%ebp)
L38:
	.loc 1 154 0 is_stmt 0 discriminator 1
	movl	-16(%ebp), %edx
	movl	-24(%ebp), %eax
	addl	%edx, %eax
	cmpl	-72(%ebp), %eax
	jge	L41
L40:
LBE10:
	.loc 1 152 0 is_stmt 1 discriminator 2
	addl	$1, -68(%ebp)
L37:
	.loc 1 152 0 is_stmt 0 discriminator 1
	movl	-12(%ebp), %edx
	movl	-20(%ebp), %eax
	addl	%edx, %eax
	cmpl	-68(%ebp), %eax
	jge	L42
LBE9:
	.loc 1 166 0 is_stmt 1
	movl	_r_placed, %eax
	addl	$1, %eax
	movl	%eax, _r_placed
	.loc 1 170 0
	movl	_r_placed, %eax
	cmpl	$1, %eax
	jle	L43
	.loc 1 172 0
	movl	-28(%ebp), %eax
	movl	%eax, -36(%ebp)
	.loc 1 173 0
	movl	-32(%ebp), %eax
	movl	%eax, -40(%ebp)
L43:
	.loc 1 176 0
	movl	-20(%ebp), %eax
	movl	%eax, %edx
	shrl	$31, %edx
	addl	%edx, %eax
	sarl	%eax
	movl	%eax, %edx
	movl	-12(%ebp), %eax
	addl	%edx, %eax
	movl	%eax, -28(%ebp)
	.loc 1 177 0
	movl	-24(%ebp), %eax
	movl	%eax, %edx
	shrl	$31, %edx
	addl	%edx, %eax
	sarl	%eax
	movl	%eax, %edx
	movl	-16(%ebp), %eax
	addl	%edx, %eax
	movl	%eax, -32(%ebp)
	.loc 1 179 0
	movl	_r_placed, %eax
	cmpl	$1, %eax
	jle	L26
LBB11:
	.loc 1 182 0
	movl	-36(%ebp), %eax
	movl	%eax, -76(%ebp)
	jmp	L44
L46:
	.loc 1 184 0
	movl	%ebx, %edx
	movl	-76(%ebp), %eax
	imull	%eax, %edx
	movl	16(%ebp), %eax
	addl	%eax, %edx
	movl	-40(%ebp), %eax
	addl	%edx, %eax
	movb	$32, (%eax)
	.loc 1 185 0
	movl	-36(%ebp), %eax
	cmpl	-28(%ebp), %eax
	jge	L45
	.loc 1 186 0
	addl	$1, -76(%ebp)
	jmp	L44
L45:
	.loc 1 188 0
	subl	$1, -76(%ebp)
L44:
	.loc 1 182 0 discriminator 1
	movl	-76(%ebp), %eax
	cmpl	-28(%ebp), %eax
	jne	L46
LBB12:
	.loc 1 191 0
	movl	-40(%ebp), %eax
	movl	%eax, -80(%ebp)
	jmp	L47
L49:
	.loc 1 193 0
	movl	%ebx, %edx
	movl	-76(%ebp), %eax
	imull	%eax, %edx
	movl	16(%ebp), %eax
	addl	%eax, %edx
	movl	-80(%ebp), %eax
	addl	%edx, %eax
	movb	$32, (%eax)
	.loc 1 194 0
	movl	-40(%ebp), %eax
	cmpl	-32(%ebp), %eax
	jge	L48
	.loc 1 195 0
	addl	$1, -80(%ebp)
	jmp	L47
L48:
	.loc 1 197 0
	subl	$1, -80(%ebp)
L47:
	.loc 1 191 0 discriminator 1
	movl	-80(%ebp), %eax
	cmpl	-32(%ebp), %eax
	jne	L49
L26:
LBE12:
LBE11:
LBE6:
	.loc 1 104 0
	movl	_r_placed, %eax
	cmpl	-88(%ebp), %eax
	jl	L50
L18:
LBE3:
	.loc 1 202 0
	movl	$0, %eax
	.loc 1 203 0
	addl	$84, %esp
	popl	%ebx
	.cfi_restore 3
	popl	%ebp
	.cfi_restore 5
	.cfi_def_cfa 4, 4
	ret
	.cfi_endproc
LFE17:
	.globl	_respawn_creatures
	.def	_respawn_creatures;	.scl	2;	.type	32;	.endef
_respawn_creatures:
LFB18:
	.loc 1 205 0
	.cfi_startproc
	pushl	%ebp
	.cfi_def_cfa_offset 8
	.cfi_offset 5, -8
	movl	%esp, %ebp
	.cfi_def_cfa_register 5
	pushl	%ebx
	subl	$20, %esp
	.cfi_offset 3, -12
	.loc 1 205 0
	movl	16(%ebp), %ebx
	.loc 1 204 0
	leal	-1(%ebx), %eax
	movl	%eax, -16(%ebp)
	.loc 1 207 0
	movzbl	_t_placed, %eax
	xorl	$1, %eax
	testb	%al, %al
	je	L53
LBB13:
LBB14:
	.loc 1 211 0
	movl	$0, -12(%ebp)
	jmp	L54
L55:
	.loc 1 215 0 discriminator 1
	call	_rand
	cltd
	idivl	12(%ebp)
	movl	%edx, -20(%ebp)
	.loc 1 216 0 discriminator 1
	call	_rand
	cltd
	idivl	16(%ebp)
	movl	%edx, -24(%ebp)
	.loc 1 219 0 discriminator 1
	movl	%ebx, %edx
	movl	-20(%ebp), %eax
	imull	%eax, %edx
	movl	20(%ebp), %eax
	addl	%eax, %edx
	movl	-24(%ebp), %eax
	addl	%edx, %eax
	movzbl	(%eax), %eax
	cmpb	$32, %al
	jne	L55
	.loc 1 221 0 discriminator 2
	movl	-12(%ebp), %edx
	movl	%edx, %eax
	addl	%eax, %eax
	addl	%edx, %eax
	sall	$2, %eax
	leal	_monster(%eax), %edx
	movl	-20(%ebp), %eax
	movl	%eax, (%edx)
	.loc 1 222 0 discriminator 2
	movl	-12(%ebp), %edx
	movl	%edx, %eax
	addl	%eax, %eax
	addl	%edx, %eax
	sall	$2, %eax
	leal	_monster+4(%eax), %edx
	movl	-24(%ebp), %eax
	movl	%eax, (%edx)
	.loc 1 223 0 discriminator 2
	movl	-12(%ebp), %edx
	movl	%edx, %eax
	addl	%eax, %eax
	addl	%edx, %eax
	sall	$2, %eax
	addl	$_monster+8, %eax
	movl	$2, (%eax)
	.loc 1 224 0 discriminator 2
	movl	-12(%ebp), %edx
	movl	%edx, %eax
	addl	%eax, %eax
	addl	%edx, %eax
	sall	$2, %eax
	addl	$_monster, %eax
	movl	(%eax), %eax
	movl	%eax, %edx
	movl	%ebx, %eax
	imull	%eax, %edx
	movl	20(%ebp), %eax
	leal	(%edx,%eax), %ecx
	movl	-12(%ebp), %edx
	movl	%edx, %eax
	addl	%eax, %eax
	addl	%edx, %eax
	sall	$2, %eax
	addl	$_monster+4, %eax
	movl	(%eax), %eax
	movb	$116, (%ecx,%eax)
	.loc 1 211 0 discriminator 2
	addl	$1, -12(%ebp)
L54:
	.loc 1 211 0 is_stmt 0 discriminator 1
	cmpl	$9, -12(%ebp)
	jle	L55
LBE14:
	.loc 1 227 0 is_stmt 1
	movb	$1, _t_placed
L53:
LBE13:
	.loc 1 232 0
	movzbl	_p_placed, %eax
	xorl	$1, %eax
	testb	%al, %al
	je	L56
L57:
	.loc 1 236 0 discriminator 3
	call	_rand
	cltd
	idivl	12(%ebp)
	movl	%edx, %eax
	movl	%eax, _py
	.loc 1 237 0 discriminator 3
	call	_rand
	cltd
	idivl	16(%ebp)
	movl	%edx, %eax
	movl	%eax, _px
	.loc 1 240 0 discriminator 3
	movl	%ebx, %edx
	movl	_py, %eax
	imull	%eax, %edx
	movl	20(%ebp), %eax
	addl	%eax, %edx
	movl	_px, %eax
	movzbl	(%edx,%eax), %eax
	cmpb	$35, %al
	je	L57
	.loc 1 240 0 is_stmt 0 discriminator 2
	movl	%ebx, %edx
	movl	_py, %eax
	imull	%eax, %edx
	movl	20(%ebp), %eax
	addl	%eax, %edx
	movl	_px, %eax
	movzbl	(%edx,%eax), %eax
	cmpb	$37, %al
	je	L57
	.loc 1 241 0 is_stmt 1
	movb	$1, _p_placed
L56:
	.loc 1 243 0
	movl	$0, %eax
	.loc 1 244 0
	addl	$20, %esp
	popl	%ebx
	.cfi_restore 3
	popl	%ebp
	.cfi_restore 5
	.cfi_def_cfa 4, 4
	ret
	.cfi_endproc
LFE18:
	.section .rdata,"dr"
LC0:
	.ascii "Gold : %d\0"
	.text
	.globl	_dungeon_draw
	.def	_dungeon_draw;	.scl	2;	.type	32;	.endef
_dungeon_draw:
LFB19:
	.loc 1 246 0
	.cfi_startproc
	pushl	%ebp
	.cfi_def_cfa_offset 8
	.cfi_offset 5, -8
	movl	%esp, %ebp
	.cfi_def_cfa_register 5
	pushl	%ebx
	subl	$36, %esp
	.cfi_offset 3, -12
	.loc 1 246 0
	movl	12(%ebp), %ebx
	.loc 1 245 0
	leal	-1(%ebx), %eax
	movl	%eax, -20(%ebp)
LBB15:
	.loc 1 248 0
	movl	$0, -12(%ebp)
	jmp	L60
L68:
LBB16:
	.loc 1 250 0
	movl	$0, -16(%ebp)
	jmp	L61
L67:
	.loc 1 253 0
	movl	-12(%ebp), %eax
	cmpl	8(%ebp), %eax
	jne	L62
	.loc 1 254 0
	movl	$32, 8(%esp)
	movl	-16(%ebp), %eax
	movl	%eax, 4(%esp)
	movl	-12(%ebp), %eax
	movl	%eax, (%esp)
	call	_mvaddch
	jmp	L63
L62:
	.loc 1 255 0
	movl	%ebx, %edx
	movl	-12(%ebp), %eax
	imull	%eax, %edx
	movl	16(%ebp), %eax
	addl	%eax, %edx
	movl	-16(%ebp), %eax
	addl	%edx, %eax
	movzbl	(%eax), %eax
	cmpb	$116, %al
	jne	L64
	.loc 1 256 0
	movl	$116, 8(%esp)
	movl	-16(%ebp), %eax
	movl	%eax, 4(%esp)
	movl	-12(%ebp), %eax
	movl	%eax, (%esp)
	call	_mvaddch
	jmp	L63
L64:
	.loc 1 257 0
	movl	%ebx, %edx
	movl	-12(%ebp), %eax
	imull	%eax, %edx
	movl	16(%ebp), %eax
	addl	%eax, %edx
	movl	-16(%ebp), %eax
	addl	%edx, %eax
	movzbl	(%eax), %eax
	cmpb	$37, %al
	jne	L65
	.loc 1 258 0
	movl	$37, 8(%esp)
	movl	-16(%ebp), %eax
	movl	%eax, 4(%esp)
	movl	-12(%ebp), %eax
	movl	%eax, (%esp)
	call	_mvaddch
	jmp	L63
L65:
	.loc 1 259 0
	movl	%ebx, %edx
	movl	-12(%ebp), %eax
	imull	%eax, %edx
	movl	16(%ebp), %eax
	addl	%eax, %edx
	movl	-16(%ebp), %eax
	addl	%edx, %eax
	movzbl	(%eax), %eax
	cmpb	$32, %al
	jne	L66
	.loc 1 260 0
	movl	$32, 8(%esp)
	movl	-16(%ebp), %eax
	movl	%eax, 4(%esp)
	movl	-12(%ebp), %eax
	movl	%eax, (%esp)
	call	_mvaddch
	jmp	L63
L66:
	.loc 1 263 0
	movl	$35, 8(%esp)
	movl	-16(%ebp), %eax
	movl	%eax, 4(%esp)
	movl	-12(%ebp), %eax
	movl	%eax, (%esp)
	call	_mvaddch
L63:
	.loc 1 250 0 discriminator 2
	addl	$1, -16(%ebp)
L61:
	.loc 1 250 0 is_stmt 0 discriminator 1
	movl	-16(%ebp), %eax
	cmpl	12(%ebp), %eax
	jle	L67
LBE16:
	.loc 1 248 0 is_stmt 1 discriminator 2
	addl	$1, -12(%ebp)
L60:
	.loc 1 248 0 is_stmt 0 discriminator 1
	movl	-12(%ebp), %eax
	cmpl	8(%ebp), %eax
	jle	L68
LBE15:
	.loc 1 266 0 is_stmt 1
	movl	_p_gold, %eax
	movl	%eax, 12(%esp)
	movl	$LC0, 8(%esp)
	movl	$0, 4(%esp)
	movl	8(%ebp), %eax
	movl	%eax, (%esp)
	call	_mvprintw
	.loc 1 267 0
	movl	$0, %eax
	.loc 1 268 0
	addl	$36, %esp
	popl	%ebx
	.cfi_restore 3
	popl	%ebp
	.cfi_restore 5
	.cfi_def_cfa 4, 4
	ret
	.cfi_endproc
LFE19:
	.globl	_game_loop
	.def	_game_loop;	.scl	2;	.type	32;	.endef
_game_loop:
LFB20:
	.loc 1 271 0
	.cfi_startproc
	pushl	%ebp
	.cfi_def_cfa_offset 8
	.cfi_offset 5, -8
	movl	%esp, %ebp
	.cfi_def_cfa_register 5
	subl	$40, %esp
	.loc 1 271 0
	movl	16(%ebp), %eax
	.loc 1 270 0
	subl	$1, %eax
	movl	%eax, -12(%ebp)
	.loc 1 273 0
	movl	$0, (%esp)
	call	_time
	movl	%eax, (%esp)
	call	_srand
	.loc 1 275 0
	movl	20(%ebp), %eax
	movl	%eax, 8(%esp)
	movl	16(%ebp), %eax
	movl	%eax, 4(%esp)
	movl	12(%ebp), %eax
	movl	%eax, (%esp)
	call	_dungeon_gen
	.loc 1 276 0
	movl	20(%ebp), %eax
	movl	%eax, 12(%esp)
	movl	16(%ebp), %eax
	movl	%eax, 8(%esp)
	movl	12(%ebp), %eax
	movl	%eax, 4(%esp)
	movl	8(%ebp), %eax
	movl	%eax, (%esp)
	call	_respawn_creatures
	.loc 1 278 0
	cmpl	$0, 8(%ebp)
	je	L71
	.loc 1 280 0
	movl	20(%ebp), %eax
	movl	%eax, 8(%esp)
	movl	16(%ebp), %eax
	movl	%eax, 4(%esp)
	movl	8(%ebp), %eax
	movl	%eax, (%esp)
	call	_p_action
L71:
	.loc 1 283 0
	movl	20(%ebp), %eax
	movl	%eax, 8(%esp)
	movl	16(%ebp), %eax
	movl	%eax, 4(%esp)
	movl	12(%ebp), %eax
	movl	%eax, (%esp)
	call	_dungeon_draw
	.loc 1 285 0
	movl	_px, %edx
	movl	_py, %eax
	movl	$64, 8(%esp)
	movl	%edx, 4(%esp)
	movl	%eax, (%esp)
	call	_mvaddch
	.loc 1 287 0
	movl	$0, %eax
	.loc 1 288 0
	leave
	.cfi_restore 5
	.cfi_def_cfa 4, 4
	ret
	.cfi_endproc
LFE20:
	.def	___main;	.scl	2;	.type	32;	.endef
	.globl	_main
	.def	_main;	.scl	2;	.type	32;	.endef
_main:
LFB21:
	.loc 1 291 0
	.cfi_startproc
	leal	4(%esp), %ecx
	.cfi_def_cfa 1, 0
	andl	$-16, %esp
	pushl	-4(%ecx)
	pushl	%ebp
	.cfi_escape 0x10,0x5,0x2,0x75,0
	movl	%esp, %ebp
	pushl	%edi
	pushl	%esi
	pushl	%ebx
	pushl	%ecx
	.cfi_escape 0xf,0x3,0x75,0x70,0x6
	.cfi_escape 0x10,0x7,0x2,0x75,0x7c
	.cfi_escape 0x10,0x6,0x2,0x75,0x78
	.cfi_escape 0x10,0x3,0x2,0x75,0x74
	subl	$72, %esp
	.loc 1 291 0
	call	___main
LVL0:
	movl	%esp, %eax
	movl	%eax, -64(%ebp)
	.loc 1 292 0
	movl	$0, -28(%ebp)
	.loc 1 297 0
	call	_initscr
	.loc 1 298 0
	movl	_stdscr, %eax
	movl	$1, 4(%esp)
	movl	%eax, (%esp)
	call	_keypad
	.loc 1 299 0
	call	_noecho
	.loc 1 300 0
	movl	$0, (%esp)
	call	_curs_set
	.loc 1 301 0
	movl	_stdscr, %eax
	movl	%eax, (%esp)
	call	_getmaxy
	movl	%eax, -32(%ebp)
	.loc 1 301 0
	movl	_stdscr, %eax
	movl	%eax, (%esp)
	call	_getmaxx
	movl	%eax, -36(%ebp)
	.loc 1 302 0
	movl	-36(%ebp), %eax
	movl	%eax, %esi
	movl	-32(%ebp), %edi
	movl	%esi, %eax
	subl	$1, %eax
	movl	%eax, -40(%ebp)
	leal	-1(%edi), %eax
	movl	%eax, -44(%ebp)
	movl	%esi, -60(%ebp)
	movl	%esi, %eax
	movl	$0, %edx
	movl	%edi, %ecx
	movl	%ecx, %ebx
	movl	$0, %esi
	movl	%edx, %ecx
	imull	%ebx, %ecx
	movl	%ecx, -68(%ebp)
	movl	%esi, %ecx
	imull	%eax, %ecx
	addl	-68(%ebp), %ecx
	mull	%ebx
	addl	%edx, %ecx
	movl	%ecx, %edx
	movl	-60(%ebp), %eax
	movl	$0, %edx
	movl	%edi, %ecx
	movl	%ecx, %ebx
	movl	$0, %esi
	movl	%edx, %ecx
	imull	%ebx, %ecx
	movl	%ecx, -68(%ebp)
	movl	%esi, %ecx
	imull	%eax, %ecx
	addl	-68(%ebp), %ecx
	mull	%ebx
	addl	%edx, %ecx
	movl	%ecx, %edx
	movl	-60(%ebp), %edx
	movl	%edi, %eax
	imull	%edx, %eax
	movl	$16, %edx
	subl	$1, %edx
	addl	%edx, %eax
	movl	$16, %esi
	movl	$0, %edx
	divl	%esi
	imull	$16, %eax, %eax
	call	___chkstk_ms
	subl	%eax, %esp
	leal	16(%esp), %eax
	addl	$0, %eax
	movl	%eax, -48(%ebp)
L74:
	.loc 1 305 0 discriminator 1
	movl	-48(%ebp), %eax
	movl	-36(%ebp), %edx
	leal	-1(%edx), %ecx
	movl	-32(%ebp), %edx
	subl	$1, %edx
	movl	%eax, 12(%esp)
	movl	%ecx, 8(%esp)
	movl	%edx, 4(%esp)
	movl	-28(%ebp), %eax
	movl	%eax, (%esp)
	call	_game_loop
	.loc 1 311 0 discriminator 1
	movl	_stdscr, %eax
	.loc 1 311 0 discriminator 1
	movl	%eax, (%esp)
	call	_wgetch
	movl	%eax, -28(%ebp)
	cmpl	$27, -28(%ebp)
	jne	L74
	.loc 1 313 0
	call	_endwin
	.loc 1 315 0
	movl	_stdscr, %eax
	movl	%eax, (%esp)
	call	_wgetch
	.loc 1 316 0
	movl	_stdscr, %eax
	movl	%eax, (%esp)
	call	_wgetch
	.loc 1 318 0
	movl	$0, %eax
	movl	-64(%ebp), %esp
	.loc 1 319 0
	leal	-16(%ebp), %esp
	popl	%ecx
	.cfi_restore 1
	.cfi_def_cfa 1, 0
	popl	%ebx
	.cfi_restore 3
	popl	%esi
	.cfi_restore 6
	popl	%edi
	.cfi_restore 7
	popl	%ebp
	.cfi_restore 5
	leal	-4(%ecx), %esp
	.cfi_def_cfa 4, 4
	ret
	.cfi_endproc
LFE21:
Letext0:
	.file 2 "c:/mingw/include/stdio.h"
	.file 3 "c:/mingw/include/curses.h"
	.file 4 "c:/mingw/include/stdlib.h"
	.file 5 "c:/mingw/include/time.h"