	.file	"app.c"
	.text
.Ltext0:
	.cfi_sections	.debug_frame
	.file 0 "C:/Sock_FdCatalog/045-f_pyr" "app.c"
	.globl	var1
	.data
	.align 2
var1:
	.word	4386
	.def	__main;	.scl	2;	.type	32;	.endef
	.section .rdata,"dr"
.LC0:
	.ascii "addr var2 : %p\12\0"
.LC1:
	.ascii "addr va1 :%p\12\0"
	.text
	.globl	main
	.def	main;	.scl	2;	.type	32;	.endef
	.seh_proc	main
main:
.LFB0:
	.file 1 "app.c"
	.loc 1 6 1
	.cfi_startproc
	pushq	%rbp
	.seh_pushreg	%rbp
	.cfi_def_cfa_offset 16
	.cfi_offset 6, -16
	movq	%rsp, %rbp
	.seh_setframe	%rbp, 0
	.cfi_def_cfa_register 6
	subq	$48, %rsp
	.seh_stackalloc	48
	.seh_endprologue
	.loc 1 6 1
	call	__main
	.loc 1 7 11
	movw	$17493, -2(%rbp)
.LBB2:
	.loc 1 10 15
	movw	$17493, -4(%rbp)
	.loc 1 11 9
	leaq	-4(%rbp), %rax
	movq	%rax, %rdx
	leaq	.LC0(%rip), %rax
	movq	%rax, %rcx
	call	printf
.LBE2:
	.loc 1 13 5
	leaq	var1(%rip), %rax
	movq	%rax, %rdx
	leaq	.LC1(%rip), %rax
	movq	%rax, %rcx
	call	printf
	.loc 1 14 5
	leaq	-2(%rbp), %rax
	movq	%rax, %rdx
	leaq	.LC0(%rip), %rax
	movq	%rax, %rcx
	call	printf
	.loc 1 15 12
	movl	$0, %eax
	.loc 1 16 1
	addq	$48, %rsp
	popq	%rbp
	.cfi_restore 6
	.cfi_def_cfa 7, 8
	ret
	.cfi_endproc
.LFE0:
	.seh_endproc
.Letext0: